Certificate:
    Data:
        Version: 3 (0x2)
        Serial Number:
            73:a3:82:8a:0a:f9:7e:ab:42:d4:30:90:fa:4d:4b:f9
    Signature Algorithm: sha1WithRSAEncryption
        Issuer: DC=AO, DC=ZAPTST, CN=zap.teste
        Validity
            Not Before: Jul 24 15:39:38 2014 GMT
            Not After : Jul 24 15:49:36 2039 GMT
        Subject: DC=AO, DC=ZAPTST, CN=zap.teste
        Subject Public Key Info:
            Public Key Algorithm: rsaEncryption
                Public-Key: (2048 bit)
                Modulus:
                    00:8d:9b:5c:b7:14:67:b1:29:8b:f2:5b:4f:e0:bc:
                    95:87:74:bd:a1:40:8c:07:56:87:5a:55:c6:92:00:
                    e7:d9:af:8e:fb:fd:c0:48:6b:aa:67:f8:7e:0d:2c:
                    71:48:4e:75:08:37:a0:4d:f8:65:f6:e5:cc:4e:df:
                    7a:58:fa:54:7d:de:e9:47:f1:5b:9a:56:3f:d3:2c:
                    ad:d0:80:ef:b6:c7:7e:be:a6:bc:61:46:8e:3d:fc:
                    1e:d0:2b:07:ba:d1:ac:c9:fe:a4:1f:40:86:eb:9e:
                    ed:ea:2f:ce:a0:0a:37:f2:80:9d:cc:57:4a:e2:d2:
                    e4:48:a1:97:f1:ea:83:4d:96:90:a8:1e:af:84:85:
                    97:52:e5:b4:39:5b:de:1a:ae:4b:b3:dd:6c:28:ce:
                    82:63:23:7b:dd:2c:fd:23:89:58:9e:96:e7:7a:d9:
                    b5:e2:c0:4a:23:87:49:0d:11:86:28:3b:43:e4:99:
                    04:55:aa:a5:89:96:f2:1c:49:16:96:d1:ba:e0:1b:
                    c4:eb:41:f7:96:67:40:8e:74:86:83:11:26:07:14:
                    b5:f7:75:89:60:17:d7:7d:e4:07:f1:f4:5a:40:a2:
                    02:ba:99:56:3f:98:94:72:23:94:aa:a9:bb:c5:76:
                    47:fd:24:45:ee:ce:1c:72:e5:0a:4e:7a:68:ed:5c:
                    26:09
                Exponent: 65537 (0x10001)
        X509v3 extensions:
            1.3.6.1.4.1.311.20.2: 
                ...C.A
            X509v3 Key Usage: critical
                Digital Signature, Certificate Sign, CRL Sign
            X509v3 Basic Constraints: critical
                CA:TRUE
            X509v3 Subject Key Identifier: 
                CD:61:34:85:BB:82:9F:37:A2:10:01:FF:B1:4C:AF:44:65:6C:DA:FF
            1.3.6.1.4.1.311.21.1: 
                ...
    Signature Algorithm: sha1WithRSAEncryption
         4e:f8:20:1c:1e:d0:9a:c9:54:9e:e0:00:66:fd:ff:e0:39:a9:
         ec:4e:5b:8f:e3:49:69:09:7e:70:1d:6e:e0:92:54:b1:da:2c:
         10:48:df:fd:13:af:7e:ff:c0:2b:af:b1:a3:13:fe:b7:29:70:
         d0:51:ad:78:d1:65:9c:90:31:f3:59:07:ea:9a:7d:b8:15:5f:
         74:8d:55:9d:a0:7f:d0:0a:ff:ff:9f:2c:b0:b7:2e:59:db:72:
         de:40:87:06:77:dc:6e:9a:74:e9:1f:12:ad:a0:1b:63:23:62:
         5d:ab:f6:6d:39:3d:32:32:3c:25:ec:a7:00:e6:57:15:3e:09:
         8c:0e:ea:ef:f0:46:3a:7a:92:db:ee:eb:06:74:d0:f2:5b:85:
         56:03:81:2a:92:54:23:82:e4:12:c9:dc:fc:a4:5c:24:fa:ca:
         6f:da:a3:19:72:ff:b6:7f:bb:72:8a:54:55:a3:ff:4b:ee:02:
         2c:2b:c2:9d:41:e2:09:f4:fc:c7:e0:e9:8a:bc:e0:ff:fc:bf:
         5d:4c:e0:75:2d:d9:61:7b:1e:bc:2b:b4:e2:66:8d:fd:2c:ee:
         00:e9:cc:bc:36:2e:fa:07:17:8b:3a:08:b5:30:d9:c4:70:f2:
         9a:d7:83:95:bd:3b:58:5d:4a:d0:dc:54:e8:e3:91:44:dd:6e:
         78:e6:ff:ca
-----BEGIN CERTIFICATE-----
MIIDczCCAlugAwIBAgIQc6OCigr5fqtC1DCQ+k1L+TANBgkqhkiG9w0BAQUFADBA
MRIwEAYKCZImiZPyLGQBGRYCQU8xFjAUBgoJkiaJk/IsZAEZFgZaQVBUU1QxEjAQ
BgNVBAMTCXphcC50ZXN0ZTAeFw0xNDA3MjQxNTM5MzhaFw0zOTA3MjQxNTQ5MzZa
MEAxEjAQBgoJkiaJk/IsZAEZFgJBTzEWMBQGCgmSJomT8ixkARkWBlpBUFRTVDES
MBAGA1UEAxMJemFwLnRlc3RlMIIBIjANBgkqhkiG9w0BAQEFAAOCAQ8AMIIBCgKC
AQEAjZtctxRnsSmL8ltP4LyVh3S9oUCMB1aHWlXGkgDn2a+O+/3ASGuqZ/h+DSxx
SE51CDegTfhl9uXMTt96WPpUfd7pR/FbmlY/0yyt0IDvtsd+vqa8YUaOPfwe0CsH
utGsyf6kH0CG657t6i/OoAo38oCdzFdK4tLkSKGX8eqDTZaQqB6vhIWXUuW0OVve
Gq5Ls91sKM6CYyN73Sz9I4lYnpbnetm14sBKI4dJDRGGKDtD5JkEVaqliZbyHEkW
ltG64BvE60H3lmdAjnSGgxEmBxS193WJYBfXfeQH8fRaQKICuplWP5iUciOUqqm7
xXZH/SRF7s4ccuUKTnpo7VwmCQIDAQABo2kwZzATBgkrBgEEAYI3FAIEBh4EAEMA
QTAOBgNVHQ8BAf8EBAMCAYYwDwYDVR0TAQH/BAUwAwEB/zAdBgNVHQ4EFgQUzWE0
hbuCnzeiEAH/sUyvRGVs2v8wEAYJKwYBBAGCNxUBBAMCAQAwDQYJKoZIhvcNAQEF
BQADggEBAE74IBwe0JrJVJ7gAGb9/+A5qexOW4/jSWkJfnAdbuCSVLHaLBBI3/0T
r37/wCuvsaMT/rcpcNBRrXjRZZyQMfNZB+qafbgVX3SNVZ2gf9AK//+fLLC3Llnb
ct5AhwZ33G6adOkfEq2gG2MjYl2r9m05PTIyPCXspwDmVxU+CYwO6u/wRjp6ktvu
6wZ00PJbhVYDgSqSVCOC5BLJ3PykXCT6ym/aoxly/7Z/u3KKVFWj/0vuAiwrwp1B
4gn0/Mfg6Yq84P/8v11M4HUt2WF7HrwrtOJmjf0s7gDpzLw2LvoHF4s6CLUw2cRw
8prXg5W9O1hdStDcVOjjkUTdbnjm/8o=
-----END CERTIFICATE-----
